Certificate:
    Data:
        Version: 3 (0x2)
        Serial Number: 2 (0x2)
        Signature Algorithm: sha256WithRSAEncryption
        Issuer: C=CN, ST=Hunan, L=Shaoyang, O=Zyan CA,Limited, OU=CAM, CN=flagship.lan/emailAddress=zengfangbo01@163.com
        Validity
            Not Before: May 27 20:55:22 2022 GMT
            Not After : May  3 20:55:22 2122 GMT
        Subject: C=CN, ST=Hunan, L=Shaoyang, O=Zyan CA,Limited, OU=CAM, CN=seaman@flagship.lan
        Subject Public Key Info:
            Public Key Algorithm: rsaEncryption
                RSA Public-Key: (2048 bit)
                Modulus:
                    00:d9:af:1a:d0:5e:39:93:47:09:08:d6:0a:76:3d:
                    87:d7:88:a4:d6:47:54:5d:84:f9:ef:32:f5:2b:f7:
                    c7:1b:94:47:48:60:94:f7:c9:9b:49:98:ea:31:bb:
                    b4:aa:b7:99:d8:f6:81:57:af:34:e2:b6:d6:04:eb:
                    be:5f:7e:82:10:17:03:64:52:90:30:d7:87:02:fa:
                    5c:8b:ea:50:f0:23:a9:2b:4d:9d:16:5e:77:49:d4:
                    19:81:f0:b2:35:ba:03:b3:54:ad:5b:6b:08:2e:bb:
                    45:fd:68:20:f7:6f:57:c6:74:ba:12:1e:be:50:8f:
                    c9:8f:08:1d:39:99:98:5d:b1:74:19:21:ae:d7:9b:
                    af:c4:32:09:4b:1e:0d:06:6e:53:5c:c8:ae:9b:87:
                    e8:e4:bf:b5:d5:82:85:d7:21:83:07:7d:f2:da:1c:
                    d8:91:25:b4:e3:5a:c7:ab:54:37:57:b4:45:e8:4e:
                    7d:d9:9e:5e:ea:a5:2f:81:17:f3:19:c1:5f:95:f6:
                    e9:f5:c2:99:ca:d1:ab:5e:89:fc:ff:c1:d8:4b:16:
                    a4:63:af:a8:36:ad:50:fa:f8:21:2e:2b:e6:dc:bb:
                    4e:9e:19:f9:03:21:80:78:9f:e9:7c:45:b8:e9:1c:
                    96:a6:40:15:59:60:f0:b2:12:29:5c:62:bc:4c:0b:
                    b5:93
                Exponent: 65537 (0x10001)
        X509v3 extensions:
            X509v3 Subject Key Identifier: 
                ED:F5:6C:BA:6A:06:F2:88:28:A8:3F:00:68:73:19:D9:86:C4:37:B0
            X509v3 Authority Key Identifier: 
                keyid:49:5E:64:3F:3A:7D:D1:5E:E9:9C:90:E0:88:00:65:CC:A1:55:64:86

            X509v3 Basic Constraints: 
                CA:FALSE
            X509v3 Key Usage: 
                Digital Signature, Key Encipherment
            X509v3 Subject Alternative Name: 
                DNS:seaman@flagship.lan, DNS:seaman@flagship.lan.com, DNS:flagship.lan.com, DNS:flagship.lan
            Netscape Comment: 
                OpenSSL Generated Certificate
    Signature Algorithm: sha256WithRSAEncryption
         76:9a:3d:0f:7c:5a:75:ed:7d:fe:60:9f:39:55:e3:a3:22:d6:
         62:db:81:17:0a:dc:de:36:ce:94:91:74:61:c4:c3:2e:c4:75:
         de:38:c8:8d:c3:04:3c:5c:0f:84:81:48:59:93:3f:60:cb:7e:
         dd:c4:7f:d2:e8:67:1a:be:e3:45:cb:b3:d4:d6:0f:5b:3e:c6:
         94:32:96:2a:11:85:b6:99:b8:4b:14:11:92:82:04:e8:aa:b6:
         b2:20:d2:12:f5:5a:3f:7b:2e:b9:08:67:6c:55:aa:dc:78:78:
         5e:1d:61:2a:2e:fa:4f:89:47:3f:e4:f0:c4:c7:a3:be:06:92:
         17:55:fa:a9:34:a4:ee:02:96:b1:f0:96:0b:8a:19:66:e4:14:
         2d:4b:80:12:18:9e:db:67:35:61:bf:4c:de:f2:1a:d3:ea:eb:
         6c:bc:43:66:ac:3a:82:85:7e:b9:ab:36:e0:5f:55:6f:6a:61:
         5b:63:c6:bb:0c:7f:7d:1f:a4:39:41:8a:e3:5e:b9:34:db:2c:
         34:5f:ac:fb:5f:5d:c7:db:2f:f9:a1:20:9f:13:26:e8:a8:52:
         a5:35:74:08:ae:3d:84:3c:a7:7d:bd:41:41:01:31:3f:45:39:
         82:43:ae:1a:d7:1b:2c:e7:b3:c5:0a:fe:15:4e:22:35:34:9a:
         9a:dd:06:17:fa:9d:9f:46:5f:16:35:d3:10:a1:7a:6b:38:3c:
         72:01:18:56:a1:56:5b:20:bf:07:94:d1:12:7c:ff:f9:06:c8:
         43:7b:78:75:2f:bb:89:13:e2:8c:53:fa:3a:3a:4e:bc:73:2a:
         77:78:4f:4c:13:83:29:b7:96:c1:62:db:af:79:bb:60:a2:ce:
         f5:c7:43:69:9a:9b:40:43:ee:c0:9c:63:92:ef:39:24:50:ef:
         b5:7b:e2:72:b9:04:d1:16:d5:7c:dd:75:54:f8:c8:b4:80:c6:
         0f:bd:5e:ba:58:2c:95:b9:65:da:53:c1:f0:03:c4:93:b7:c1:
         7c:ff:5d:96:67:5a:54:5b:6b:2c:c0:0d:dd:87:9b:2d:6d:28:
         6d:f7:67:8a:74:c2:d9:13:7c:a2:6c:90:c3:a0:cf:31:32:16:
         b8:fb:8b:05:79:24:31:56:50:3a:99:be:4f:d2:dc:b0:6d:6a:
         1c:59:4b:4c:a8:d1:6d:8a:c2:9a:98:75:06:7a:76:02:37:e3:
         97:d8:13:5b:e2:2f:d0:ff:9d:61:35:67:1a:ff:71:35:87:08:
         64:f1:ad:38:0f:d1:ca:10:02:71:b6:33:96:f5:a8:7f:c9:7e:
         02:da:7d:45:2c:77:03:9a:b4:9a:4f:a9:89:4c:84:83:59:b4:
         21:4e:44:43:94:b0:60:55
-----BEGIN CERTIFICATE-----
MIIFazCCA1OgAwIBAgIBAjANBgkqhkiG9w0BAQsFADCBlDELMAkGA1UEBhMCQ04x
DjAMBgNVBAgMBUh1bmFuMREwDwYDVQQHDAhTaGFveWFuZzEYMBYGA1UECgwPWnlh
biBDQSxMaW1pdGVkMQwwCgYDVQQLDANDQU0xFTATBgNVBAMMDGZsYWdzaGlwLmxh
bjEjMCEGCSqGSIb3DQEJARYUemVuZ2ZhbmdibzAxQDE2My5jb20wIBcNMjIwNTI3
MjA1NTIyWhgPMjEyMjA1MDMyMDU1MjJaMHYxCzAJBgNVBAYTAkNOMQ4wDAYDVQQI
DAVIdW5hbjERMA8GA1UEBwwIU2hhb3lhbmcxGDAWBgNVBAoMD1p5YW4gQ0EsTGlt
aXRlZDEMMAoGA1UECwwDQ0FNMRwwGgYDVQQDDBNzZWFtYW5AZmxhZ3NoaXAubGFu
MIIBIjANBgkqhkiG9w0BAQEFAAOCAQ8AMIIBCgKCAQEA2a8a0F45k0cJCNYKdj2H
14ik1kdUXYT57zL1K/fHG5RHSGCU98mbSZjqMbu0qreZ2PaBV6804rbWBOu+X36C
EBcDZFKQMNeHAvpci+pQ8COpK02dFl53SdQZgfCyNboDs1StW2sILrtF/Wgg929X
xnS6Eh6+UI/JjwgdOZmYXbF0GSGu15uvxDIJSx4NBm5TXMium4fo5L+11YKF1yGD
B33y2hzYkSW041rHq1Q3V7RF6E592Z5e6qUvgRfzGcFflfbp9cKZytGrXon8/8HY
SxakY6+oNq1Q+vghLivm3LtOnhn5AyGAeJ/pfEW46RyWpkAVWWDwshIpXGK8TAu1
kwIDAQABo4HiMIHfMB0GA1UdDgQWBBTt9Wy6agbyiCioPwBocxnZhsQ3sDAfBgNV
HSMEGDAWgBRJXmQ/On3RXumckOCIAGXMoVVkhjAJBgNVHRMEAjAAMAsGA1UdDwQE
AwIFoDBXBgNVHREEUDBOghNzZWFtYW5AZmxhZ3NoaXAubGFughdzZWFtYW5AZmxh
Z3NoaXAubGFuLmNvbYIQZmxhZ3NoaXAubGFuLmNvbYIMZmxhZ3NoaXAubGFuMCwG
CWCGSAGG+EIBDQQfFh1PcGVuU1NMIEdlbmVyYXRlZCBDZXJ0aWZpY2F0ZTANBgkq
hkiG9w0BAQsFAAOCAgEAdpo9D3xade19/mCfOVXjoyLWYtuBFwrc3jbOlJF0YcTD
LsR13jjIjcMEPFwPhIFIWZM/YMt+3cR/0uhnGr7jRcuz1NYPWz7GlDKWKhGFtpm4
SxQRkoIE6Kq2siDSEvVaP3suuQhnbFWq3Hh4Xh1hKi76T4lHP+TwxMejvgaSF1X6
qTSk7gKWsfCWC4oZZuQULUuAEhie22c1Yb9M3vIa0+rrbLxDZqw6goV+uas24F9V
b2phW2PGuwx/fR+kOUGK4165NNssNF+s+19dx9sv+aEgnxMm6KhSpTV0CK49hDyn
fb1BQQExP0U5gkOuGtcbLOezxQr+FU4iNTSamt0GF/qdn0ZfFjXTEKF6azg8cgEY
VqFWWyC/B5TREnz/+QbIQ3t4dS+7iRPijFP6OjpOvHMqd3hPTBODKbeWwWLbr3m7
YKLO9cdDaZqbQEPuwJxjku85JFDvtXvicrkE0RbVfN11VPjItIDGD71eulgslbll
2lPB8APEk7fBfP9dlmdaVFtrLMAN3YebLW0obfdninTC2RN8omyQw6DPMTIWuPuL
BXkkMVZQOpm+T9LcsG1qHFlLTKjRbYrCmph1Bnp2Ajfjl9gTW+Iv0P+dYTVnGv9x
NYcIZPGtOA/RyhACcbYzlvWof8l+Atp9RSx3A5q0mk+piUyEg1m0IU5EQ5SwYFU=
-----END CERTIFICATE-----
