Certificate:
    Data:
        Version: 3 (0x2)
        Serial Number: 1 (0x1)
        Signature Algorithm: sha256WithRSAEncryption
        Issuer: C=CN, ST=Hunan, L=Shaoyang, O=Zyan CA,Limited, OU=CAM, CN=flagship.lan/emailAddress=zengfangbo01@163.com
        Validity
            Not Before: May 27 20:53:18 2022 GMT
            Not After : May  3 20:53:18 2122 GMT
        Subject: C=CN, ST=Hunan, L=Shaoyang, O=Zyan CA,Limited, OU=CAM, CN=flagger@flagship.lan
        Subject Public Key Info:
            Public Key Algorithm: rsaEncryption
                RSA Public-Key: (2048 bit)
                Modulus:
                    00:d5:51:ce:52:3f:55:2b:ee:68:df:32:c3:c4:08:
                    1d:a7:af:0f:c3:1e:12:e9:b4:99:59:3a:d6:8a:10:
                    3e:a7:e8:cd:ff:a8:f0:48:8b:3c:4c:63:03:88:ef:
                    5a:0d:4b:5d:a8:da:93:de:6e:55:53:38:74:e2:62:
                    f6:d6:d6:12:33:8d:a8:18:18:32:be:d8:c0:1d:28:
                    b5:40:d6:af:65:21:97:0e:39:90:d6:f4:1e:a5:ac:
                    ee:9f:56:f1:0a:05:c3:2f:a8:d6:69:83:ab:52:de:
                    6b:12:9b:b1:e8:15:6c:bd:b1:ee:20:5a:15:f4:7d:
                    6d:24:25:42:d5:d1:ba:37:7e:52:52:9e:3c:f0:02:
                    1c:99:5e:73:3c:3c:bc:8c:e1:66:80:3d:4f:d1:28:
                    0f:d6:b4:5d:13:74:34:62:98:5e:f7:d6:c2:ec:bc:
                    74:8d:b3:07:50:43:68:8d:02:e8:9c:67:0f:56:f5:
                    8a:d6:f4:09:53:69:b9:79:fc:b4:61:93:14:62:6d:
                    8c:a7:29:88:e5:e0:3e:09:bb:fd:ed:f3:39:77:02:
                    49:fc:61:8b:b1:ce:92:ad:25:45:d3:9f:96:60:7b:
                    79:e5:b0:6b:73:30:d7:8e:d9:8f:b2:62:3e:1b:5b:
                    9d:77:46:0f:1f:4f:91:90:c2:cb:85:9d:6e:64:bd:
                    b8:3d
                Exponent: 65537 (0x10001)
        X509v3 extensions:
            X509v3 Subject Key Identifier: 
                62:1E:88:9F:32:B6:76:65:75:AE:51:59:CF:29:D9:E6:AF:77:B9:A5
            X509v3 Authority Key Identifier: 
                keyid:49:5E:64:3F:3A:7D:D1:5E:E9:9C:90:E0:88:00:65:CC:A1:55:64:86

            X509v3 Basic Constraints: 
                CA:FALSE
            X509v3 Key Usage: 
                Digital Signature, Key Encipherment
            X509v3 Subject Alternative Name: 
                DNS:flagger@flagship.lan, DNS:flagger@flagship.lan.com, DNS:flagship.lan.com, DNS:flagship.lan
            Netscape Comment: 
                OpenSSL Generated Certificate
    Signature Algorithm: sha256WithRSAEncryption
         07:96:bd:7f:71:31:5b:0f:bb:9d:19:a3:f2:96:1c:ae:c9:0e:
         18:41:b3:1b:44:9b:be:08:8a:12:b4:08:03:cb:93:83:d4:b1:
         9e:76:d6:d0:a6:14:23:4c:9a:2b:ee:ed:41:2e:1d:8c:95:64:
         4c:6a:e5:4b:5f:e2:ae:c2:6c:48:62:73:1f:81:a0:1c:fd:7f:
         3b:b8:e6:bf:97:c4:1c:23:9e:20:b1:9e:b4:74:99:2c:28:52:
         18:29:8f:a1:d2:aa:eb:ae:30:7b:44:30:29:6c:79:0a:22:61:
         dc:39:60:4e:68:f8:cb:7f:9e:e3:3b:e6:54:0d:35:2f:76:1f:
         25:bb:5e:29:11:dd:c2:34:9f:45:ca:ed:db:9d:7c:06:8d:a9:
         53:09:a1:83:22:e2:eb:ef:d8:e3:a7:8d:c5:72:e1:f3:4d:71:
         5b:e7:bb:1b:0c:47:70:61:0f:e1:ff:88:b7:55:64:dd:6f:fe:
         b0:0e:c2:37:d4:ef:1a:3f:78:91:22:45:79:bb:43:4d:34:dc:
         e2:47:0f:1f:48:ea:9a:87:df:96:00:b7:38:f9:0d:a5:92:4b:
         19:23:28:69:bf:1d:bf:23:32:9c:b2:7f:6c:21:4e:dc:b2:c7:
         77:a9:7a:d2:a0:78:18:28:59:aa:b7:8b:60:45:06:3a:09:c3:
         e3:1c:e9:41:e4:0f:a8:cc:97:a9:52:56:b2:aa:ea:7d:ee:24:
         be:fe:51:d8:59:33:af:90:84:ba:8b:f2:b9:cd:7c:74:ed:e5:
         77:0b:ed:de:28:e9:84:54:f8:16:c4:31:5d:98:42:7d:89:b4:
         b3:56:b5:29:d4:2a:36:50:6c:8a:61:c8:8d:a7:b6:aa:0d:be:
         70:23:83:0b:cb:62:9f:58:0d:bd:f8:0d:91:04:3d:c3:50:2b:
         9b:d1:8e:e9:89:7c:a3:47:76:4b:c1:a0:b0:24:01:27:d9:3c:
         09:87:e4:62:ae:c1:12:dd:5c:27:e6:0c:2f:94:cf:41:ff:3b:
         b7:a2:2a:10:26:be:25:a1:1e:60:65:b6:1f:94:92:da:7a:0d:
         74:89:be:e9:44:88:97:37:31:12:a0:3b:d7:31:59:83:fe:cb:
         6f:d9:d3:56:d3:4b:48:06:ab:0a:6b:99:b0:40:9f:2b:52:a9:
         70:a4:e6:ee:b7:d0:49:1e:45:6e:9b:c1:4f:4b:6c:78:78:18:
         77:80:d4:98:be:05:5b:1e:aa:43:4a:1c:1a:74:61:0e:35:bf:
         6c:c5:8a:fa:a0:85:a9:86:4f:bf:0b:07:1c:b5:74:f0:ee:f7:
         d6:23:a0:90:e6:c0:4d:15:fb:99:a8:d9:3f:4e:b2:b2:62:e3:
         83:d8:5b:55:3a:af:e2:22
-----BEGIN CERTIFICATE-----
MIIFbjCCA1agAwIBAgIBATANBgkqhkiG9w0BAQsFADCBlDELMAkGA1UEBhMCQ04x
DjAMBgNVBAgMBUh1bmFuMREwDwYDVQQHDAhTaGFveWFuZzEYMBYGA1UECgwPWnlh
biBDQSxMaW1pdGVkMQwwCgYDVQQLDANDQU0xFTATBgNVBAMMDGZsYWdzaGlwLmxh
bjEjMCEGCSqGSIb3DQEJARYUemVuZ2ZhbmdibzAxQDE2My5jb20wIBcNMjIwNTI3
MjA1MzE4WhgPMjEyMjA1MDMyMDUzMThaMHcxCzAJBgNVBAYTAkNOMQ4wDAYDVQQI
DAVIdW5hbjERMA8GA1UEBwwIU2hhb3lhbmcxGDAWBgNVBAoMD1p5YW4gQ0EsTGlt
aXRlZDEMMAoGA1UECwwDQ0FNMR0wGwYDVQQDDBRmbGFnZ2VyQGZsYWdzaGlwLmxh
bjCCASIwDQYJKoZIhvcNAQEBBQADggEPADCCAQoCggEBANVRzlI/VSvuaN8yw8QI
HaevD8MeEum0mVk61ooQPqfozf+o8EiLPExjA4jvWg1LXajak95uVVM4dOJi9tbW
EjONqBgYMr7YwB0otUDWr2Uhlw45kNb0HqWs7p9W8QoFwy+o1mmDq1LeaxKbsegV
bL2x7iBaFfR9bSQlQtXRujd+UlKePPACHJleczw8vIzhZoA9T9EoD9a0XRN0NGKY
XvfWwuy8dI2zB1BDaI0C6JxnD1b1itb0CVNpuXn8tGGTFGJtjKcpiOXgPgm7/e3z
OXcCSfxhi7HOkq0lRdOflmB7eeWwa3Mw147Zj7JiPhtbnXdGDx9PkZDCy4WdbmS9
uD0CAwEAAaOB5DCB4TAdBgNVHQ4EFgQUYh6InzK2dmV1rlFZzynZ5q93uaUwHwYD
VR0jBBgwFoAUSV5kPzp90V7pnJDgiABlzKFVZIYwCQYDVR0TBAIwADALBgNVHQ8E
BAMCBaAwWQYDVR0RBFIwUIIUZmxhZ2dlckBmbGFnc2hpcC5sYW6CGGZsYWdnZXJA
ZmxhZ3NoaXAubGFuLmNvbYIQZmxhZ3NoaXAubGFuLmNvbYIMZmxhZ3NoaXAubGFu
MCwGCWCGSAGG+EIBDQQfFh1PcGVuU1NMIEdlbmVyYXRlZCBDZXJ0aWZpY2F0ZTAN
BgkqhkiG9w0BAQsFAAOCAgEAB5a9f3ExWw+7nRmj8pYcrskOGEGzG0SbvgiKErQI
A8uTg9SxnnbW0KYUI0yaK+7tQS4djJVkTGrlS1/irsJsSGJzH4GgHP1/O7jmv5fE
HCOeILGetHSZLChSGCmPodKq664we0QwKWx5CiJh3DlgTmj4y3+e4zvmVA01L3Yf
JbteKRHdwjSfRcrt2518Bo2pUwmhgyLi6+/Y46eNxXLh801xW+e7GwxHcGEP4f+I
t1Vk3W/+sA7CN9TvGj94kSJFebtDTTTc4kcPH0jqmofflgC3OPkNpZJLGSMoab8d
vyMynLJ/bCFO3LLHd6l60qB4GChZqreLYEUGOgnD4xzpQeQPqMyXqVJWsqrqfe4k
vv5R2Fkzr5CEuovyuc18dO3ldwvt3ijphFT4FsQxXZhCfYm0s1a1KdQqNlBsimHI
jae2qg2+cCODC8tin1gNvfgNkQQ9w1Arm9GO6Yl8o0d2S8GgsCQBJ9k8CYfkYq7B
Et1cJ+YML5TPQf87t6IqECa+JaEeYGW2H5SS2noNdIm+6USIlzcxEqA71zFZg/7L
b9nTVtNLSAarCmuZsECfK1KpcKTm7rfQSR5FbpvBT0tseHgYd4DUmL4FWx6qQ0oc
GnRhDjW/bMWK+qCFqYZPvwsHHLV08O731iOgkObATRX7majZP06ysmLjg9hbVTqv
4iI=
-----END CERTIFICATE-----
